; Function Attrs: mustprogress nounwind uwtable
define hidden noundef i64 @_ZN8ZBarrier14mark_slow_pathE8zaddress(i64 noundef returned %0) local_unnamed_addr #0 align 2 {
  %2 = icmp eq i64 %0, 0
  br i1 %2, label %_ZN8ZBarrier4markILb0ELb0ELb1ELb0EEEv8zaddress.exit, label %3

3:                                                ; preds = %1
  %4 = load ptr, ptr @_ZN5ZHeap5_heapE, align 8
  %5 = load i64, ptr @ZAddressOffsetMask, align 8
  %6 = and i64 %5, %0
  %7 = lshr i64 %6, 21
  %8 = getelementptr inbounds i8, ptr %4, i64 624
  %9 = load ptr, ptr %8, align 8
  %10 = getelementptr inbounds ptr, ptr %9, i64 %7
  %11 = load volatile ptr, ptr %10, align 8
  %12 = getelementptr inbounds i8, ptr %11, i64 1
  %13 = load i8, ptr %12, align 1
  %.not.i = icmp eq i8 %13, 0
  br i1 %.not.i, label %19, label %14

14:                                               ; preds = %3
  %15 = load ptr, ptr @_ZN11ZGeneration4_oldE, align 8
  %16 = getelementptr inbounds i8, ptr %15, i64 3216
  %17 = load i32, ptr %16, align 16
  %18 = icmp eq i32 %17, 0
  br i1 %18, label %_ZN11ZGeneration21mark_object_if_activeILb0ELb0ELb1ELb0EEEv8zaddress.exit.sink.split.i, label %_ZN8ZBarrier4markILb0ELb0ELb1ELb0EEEv8zaddress.exit

19:                                               ; preds = %3
  %20 = load ptr, ptr @_ZN11ZGeneration6_youngE, align 8
  %21 = getelementptr inbounds i8, ptr %20, i64 3216
  %22 = load i32, ptr %21, align 16
  %23 = icmp eq i32 %22, 0
  br i1 %23, label %_ZN11ZGeneration21mark_object_if_activeILb0ELb0ELb1ELb0EEEv8zaddress.exit.sink.split.i, label %_ZN8ZBarrier4markILb0ELb0ELb1ELb0EEEv8zaddress.exit

_ZN11ZGeneration21mark_object_if_activeILb0ELb0ELb1ELb0EEEv8zaddress.exit.sink.split.i: ; preds = %19, %14
  %.sink4.i = phi ptr [ %15, %14 ], [ %20, %19 ]
  %24 = getelementptr inbounds i8, ptr %.sink4.i, i64 256
  tail call void @_ZN5ZMark11mark_objectILb0ELb0ELb1ELb0EEEv8zaddress(ptr noundef nonnull align 64 dereferenceable(2652) %24, i64 noundef %0)
  br label %_ZN8ZBarrier4markILb0ELb0ELb1ELb0EEEv8zaddress.exit

_ZN8ZBarrier4markILb0ELb0ELb1ELb0EEEv8zaddress.exit: ; preds = %_ZN11ZGeneration21mark_object_if_activeILb0ELb0ELb1ELb0EEEv8zaddress.exit.sink.split.i, %19, %14, %1
  ret i64 %0
}